; ModuleID = '44/1370.c'
source_filename = "44/1370.c"
target datalayout = "e-m:e-p270:32:32-p271:32:32-p272:64:64-i64:64-f80:128-n8:16:32:64-S128"
target triple = "x86_64-pc-linux-gnu"

@.str = private unnamed_addr constant [2 x i8] c"0\00", align 1
@.str.1 = private unnamed_addr constant [2 x i8] c"-\00", align 1
@.str.2 = private unnamed_addr constant [3 x i8] c"%c\00", align 1
@.str.3 = private unnamed_addr constant [2 x i8] c"\0A\00", align 1

; Function Attrs: noinline nounwind uwtable
define dso_local signext i8 @reverse(i8* %0, i32 %1) #0 {
  %3 = alloca i8, align 1
  %4 = alloca i8*, align 8
  %5 = alloca i32, align 4
  %6 = alloca i32, align 4
  %7 = alloca i32, align 4
  store i8* %0, i8** %4, align 8
  store i32 %1, i32* %5, align 4
  %8 = load i32, i32* %5, align 4
  %9 = icmp eq i32 %8, 1
  br i1 %9, label %10, label %18

10:                                               ; preds = %2
  %11 = load i8*, i8** %4, align 8
  %12 = getelementptr inbounds i8, i8* %11, i64 0
  %13 = load i8, i8* %12, align 1
  %14 = sext i8 %13 to i32
  %15 = icmp eq i32 %14, 48
  br i1 %15, label %16, label %18

16:                                               ; preds = %10
  %17 = call i32 (i8*, ...) @printf(i8* getelementptr inbounds ([2 x i8], [2 x i8]* @.str, i64 0, i64 0))
  br label %18

18:                                               ; preds = %16, %10, %2
  %19 = load i8*, i8** %4, align 8
  %20 = getelementptr inbounds i8, i8* %19, i64 0
  %21 = load i8, i8* %20, align 1
  %22 = sext i8 %21 to i32
  %23 = icmp eq i32 %22, 45
  br i1 %23, label %24, label %62

24:                                               ; preds = %18
  %25 = call i32 (i8*, ...) @printf(i8* getelementptr inbounds ([2 x i8], [2 x i8]* @.str.1, i64 0, i64 0))
  %26 = load i32, i32* %5, align 4
  %27 = sub nsw i32 %26, 1
  store i32 %27, i32* %6, align 4
  br label %28

28:                                               ; preds = %42, %24
  %29 = load i32, i32* %6, align 4
  %30 = icmp sgt i32 %29, 0
  br i1 %30, label %31, label %45

31:                                               ; preds = %28
  %32 = load i8*, i8** %4, align 8
  %33 = load i32, i32* %6, align 4
  %34 = sext i32 %33 to i64
  %35 = getelementptr inbounds i8, i8* %32, i64 %34
  %36 = load i8, i8* %35, align 1
  %37 = sext i8 %36 to i32
  %38 = icmp eq i32 %37, 48
  br i1 %38, label %39, label %40

39:                                               ; preds = %31
  br label %42

40:                                               ; preds = %31
  %41 = load i32, i32* %6, align 4
  store i32 %41, i32* %7, align 4
  br label %45

42:                                               ; preds = %39
  %43 = load i32, i32* %6, align 4
  %44 = add nsw i32 %43, -1
  store i32 %44, i32* %6, align 4
  br label %28

45:                                               ; preds = %40, %28
  %46 = load i32, i32* %7, align 4
  store i32 %46, i32* %6, align 4
  br label %47

47:                                               ; preds = %58, %45
  %48 = load i32, i32* %6, align 4
  %49 = icmp sgt i32 %48, 0
  br i1 %49, label %50, label %61

50:                                               ; preds = %47
  %51 = load i8*, i8** %4, align 8
  %52 = load i32, i32* %6, align 4
  %53 = sext i32 %52 to i64
  %54 = getelementptr inbounds i8, i8* %51, i64 %53
  %55 = load i8, i8* %54, align 1
  %56 = sext i8 %55 to i32
  %57 = call i32 (i8*, ...) @printf(i8* getelementptr inbounds ([3 x i8], [3 x i8]* @.str.2, i64 0, i64 0), i32 %56)
  br label %58

58:                                               ; preds = %50
  %59 = load i32, i32* %6, align 4
  %60 = add nsw i32 %59, -1
  store i32 %60, i32* %6, align 4
  br label %47

61:                                               ; preds = %47
  br label %62

62:                                               ; preds = %61, %18
  %63 = load i8*, i8** %4, align 8
  %64 = getelementptr inbounds i8, i8* %63, i64 0
  %65 = load i8, i8* %64, align 1
  %66 = sext i8 %65 to i32
  %67 = icmp ne i32 %66, 45
  br i1 %67, label %68, label %105

68:                                               ; preds = %62
  %69 = load i32, i32* %5, align 4
  %70 = sub nsw i32 %69, 1
  store i32 %70, i32* %6, align 4
  br label %71

71:                                               ; preds = %85, %68
  %72 = load i32, i32* %6, align 4
  %73 = icmp sge i32 %72, 0
  br i1 %73, label %74, label %88

74:                                               ; preds = %71
  %75 = load i8*, i8** %4, align 8
  %76 = load i32, i32* %6, align 4
  %77 = sext i32 %76 to i64
  %78 = getelementptr inbounds i8, i8* %75, i64 %77
  %79 = load i8, i8* %78, align 1
  %80 = sext i8 %79 to i32
  %81 = icmp eq i32 %80, 48
  br i1 %81, label %82, label %83

82:                                               ; preds = %74
  br label %85

83:                                               ; preds = %74
  %84 = load i32, i32* %6, align 4
  store i32 %84, i32* %7, align 4
  br label %88

85:                                               ; preds = %82
  %86 = load i32, i32* %6, align 4
  %87 = add nsw i32 %86, -1
  store i32 %87, i32* %6, align 4
  br label %71

88:                                               ; preds = %83, %71
  %89 = load i32, i32* %7, align 4
  store i32 %89, i32* %6, align 4
  br label %90

90:                                               ; preds = %101, %88
  %91 = load i32, i32* %6, align 4
  %92 = icmp sge i32 %91, 0
  br i1 %92, label %93, label %104

93:                                               ; preds = %90
  %94 = load i8*, i8** %4, align 8
  %95 = load i32, i32* %6, align 4
  %96 = sext i32 %95 to i64
  %97 = getelementptr inbounds i8, i8* %94, i64 %96
  %98 = load i8, i8* %97, align 1
  %99 = sext i8 %98 to i32
  %100 = call i32 (i8*, ...) @printf(i8* getelementptr inbounds ([3 x i8], [3 x i8]* @.str.2, i64 0, i64 0), i32 %99)
  br label %101

101:                                              ; preds = %93
  %102 = load i32, i32* %6, align 4
  %103 = add nsw i32 %102, -1
  store i32 %103, i32* %6, align 4
  br label %90

104:                                              ; preds = %90
  br label %105

105:                                              ; preds = %104, %62
  %106 = load i8, i8* %3, align 1
  ret i8 %106
}

declare dso_local i32 @printf(i8*, ...) #1

; Function Attrs: noinline nounwind uwtable
define dso_local i32 @main() #0 {
  %1 = alloca i32, align 4
  %2 = alloca [100 x i8], align 16
  %3 = alloca i8, align 1
  %4 = alloca i32, align 4
  store i32 0, i32* %1, align 4
  store i8 0, i8* %3, align 1
  br label %5

5:                                                ; preds = %19, %0
  %6 = load i8, i8* %3, align 1
  %7 = sext i8 %6 to i32
  %8 = icmp slt i32 %7, 6
  br i1 %8, label %9, label %22

9:                                                ; preds = %5
  %10 = getelementptr inbounds [100 x i8], [100 x i8]* %2, i64 0, i64 0
  %11 = call i32 (i8*, ...) bitcast (i32 (...)* @gets to i32 (i8*, ...)*)(i8* %10)
  %12 = getelementptr inbounds [100 x i8], [100 x i8]* %2, i64 0, i64 0
  %13 = call i64 @strlen(i8* %12) #3
  %14 = trunc i64 %13 to i32
  store i32 %14, i32* %4, align 4
  %15 = getelementptr inbounds [100 x i8], [100 x i8]* %2, i64 0, i64 0
  %16 = load i32, i32* %4, align 4
  %17 = call signext i8 @reverse(i8* %15, i32 %16)
  %18 = call i32 (i8*, ...) @printf(i8* getelementptr inbounds ([2 x i8], [2 x i8]* @.str.3, i64 0, i64 0))
  br label %19

19:                                               ; preds = %9
  %20 = load i8, i8* %3, align 1
  %21 = add i8 %20, 1
  store i8 %21, i8* %3, align 1
  br label %5

22:                                               ; preds = %5
  %23 = call i32 @getchar()
  %24 = call i32 @getchar()
  %25 = call i32 @getchar()
  %26 = load i32, i32* %1, align 4
  ret i32 %26
}

declare dso_local i32 @gets(...) #1

; Function Attrs: nounwind readonly
declare dso_local i64 @strlen(i8*) #2

declare dso_local i32 @getchar() #1


!llvm.module.flags = !{!0}
!llvm.ident = !{!1}

!0 = !{i32 1, !"wchar_size", i32 4}
!1 = !{!"clang version 10.0.0-4ubuntu1 "}
